; Function Attrs: nounwind uwtable
define noundef i32 @ff_msmpeg4_decode_ext_header(ptr noundef captures(none) %0, i32 noundef %1) local_unnamed_addr #3 {
  %3 = shl nsw i32 %1, 3
  %4 = getelementptr i8, ptr %0, i64 4176
  %.val = load i32, ptr %4, align 8, !tbaa !62
  %5 = sub nsw i32 %3, %.val
  %6 = getelementptr inbounds nuw i8, ptr %0, i64 4148
  %7 = load i32, ptr %6, align 4, !tbaa !29
  %8 = icmp ugt i32 %7, 2
  %9 = select i1 %8, i32 17, i32 16
  %.not = icmp sge i32 %5, %9
  %10 = or disjoint i32 %9, 8
  %11 = icmp slt i32 %5, %10
  %or.cond = select i1 %.not, i1 %11, i1 false
  br i1 %or.cond, label %12, label %46

12:                                               ; preds = %2
  %13 = getelementptr inbounds nuw i8, ptr %0, i64 4160
  %14 = getelementptr inbounds nuw i8, ptr %0, i64 4184
  %15 = load i32, ptr %14, align 8, !tbaa !65
  %16 = add i32 %.val, 5
  %17 = tail call i32 @llvm.umin.i32(i32 %15, i32 %16)
  store i32 %17, ptr %4, align 8, !tbaa !62
  %18 = load ptr, ptr %13, align 8, !tbaa !63
  %19 = lshr i32 %17, 3
  %20 = zext nneg i32 %19 to i64
  %21 = getelementptr inbounds nuw i8, ptr %18, i64 %20
  %22 = load i32, ptr %21, align 1, !tbaa !64
  %23 = tail call i32 @llvm.bswap.i32(i32 %22)
  %24 = and i32 %17, 7
  %25 = shl i32 %23, %24
  %26 = add i32 %17, 11
  %27 = tail call i32 @llvm.umin.i32(i32 %15, i32 %26)
  store i32 %27, ptr %4, align 8, !tbaa !62
  %28 = lshr i32 %25, 11
  %29 = and i32 %28, 2096128
  %30 = getelementptr inbounds nuw i8, ptr %0, i64 4808
  store i32 %29, ptr %30, align 8, !tbaa !96
  br i1 %8, label %31, label %44

31:                                               ; preds = %12
  %32 = lshr i32 %27, 3
  %33 = zext nneg i32 %32 to i64
  %34 = getelementptr inbounds nuw i8, ptr %18, i64 %33
  %35 = load i8, ptr %34, align 1, !tbaa !64
  %36 = icmp slt i32 %27, %15
  %37 = zext i1 %36 to i32
  %spec.select.i = add i32 %27, %37
  %38 = zext i8 %35 to i32
  %39 = and i32 %27, 7
  %40 = shl nuw nsw i32 %38, %39
  %41 = lshr i32 %40, 7
  store i32 %spec.select.i, ptr %4, align 8, !tbaa !62
  %42 = and i32 %41, 1
  %43 = getelementptr inbounds nuw i8, ptr %0, i64 4144
  store i32 %42, ptr %43, align 8, !tbaa !101
  br label %55

44:                                               ; preds = %12
  %45 = getelementptr inbounds nuw i8, ptr %0, i64 4144
  store i32 0, ptr %45, align 8, !tbaa !101
  br label %55

46:                                               ; preds = %2
  br i1 %11, label %47, label %52

47:                                               ; preds = %46
  %48 = getelementptr inbounds nuw i8, ptr %0, i64 4144
  store i32 0, ptr %48, align 8, !tbaa !101
  %.not22 = icmp eq i32 %7, 2
  br i1 %.not22, label %55, label %49

49:                                               ; preds = %47
  %50 = getelementptr inbounds nuw i8, ptr %0, i64 472
  %51 = load ptr, ptr %50, align 8, !tbaa !71
  tail call void (ptr, i32, ptr, ...) @av_log(ptr noundef %51, i32 noundef 16, ptr noundef nonnull @.str.7, i32 noundef %5) #9
  br label %55

52:                                               ; preds = %46
  %53 = getelementptr inbounds nuw i8, ptr %0, i64 472
  %54 = load ptr, ptr %53, align 8, !tbaa !71
  tail call void (ptr, i32, ptr, ...) @av_log(ptr noundef %54, i32 noundef 16, ptr noundef nonnull @.str.8) #9
  br label %55

55:                                               ; preds = %52, %49, %47, %31, %44
  ret i32 0
}